; Function Attrs: mustprogress uwtable
define hidden void @_ZN10duckdb_re216CharClassBuilder12AddCharClassEPS0_(ptr noundef nonnull align 8 dereferenceable(64) %0, ptr noundef readonly captures(address) %1) local_unnamed_addr #7 align 2 {
  %3 = getelementptr inbounds nuw i8, ptr %1, i64 40
  %4 = load ptr, ptr %3, align 8, !tbaa !115
  %5 = getelementptr inbounds nuw i8, ptr %1, i64 24
  %.not7 = icmp eq ptr %4, %5
  br i1 %.not7, label %._crit_edge, label %.lr.ph

._crit_edge:                                      ; preds = %.lr.ph, %2
  ret void

.lr.ph:                                           ; preds = %2, %.lr.ph
  %.sroa.03.08 = phi ptr [ %11, %.lr.ph ], [ %4, %2 ]
  %6 = getelementptr inbounds nuw i8, ptr %.sroa.03.08, i64 32
  %7 = load i32, ptr %6, align 4, !tbaa !129
  %8 = getelementptr inbounds nuw i8, ptr %.sroa.03.08, i64 36
  %9 = load i32, ptr %8, align 4, !tbaa !126
  %10 = tail call noundef zeroext i1 @_ZN10duckdb_re216CharClassBuilder8AddRangeEii(ptr noundef nonnull align 8 dereferenceable(64) %0, i32 noundef %7, i32 noundef %9)
  %11 = tail call noundef ptr @_ZSt18_Rb_tree_incrementPKSt18_Rb_tree_node_base(ptr noundef %.sroa.03.08) #32
  %.not = icmp eq ptr %11, %5
  br i1 %.not, label %._crit_edge, label %.lr.ph, !llvm.loop !131
}